; Function Attrs: mustprogress nounwind uwtable
define dso_local noundef zeroext i1 @_ZN4llvm14CombinerHelper22matchConstantFoldBinOpERNS_12MachineInstrERNS_5APIntE(ptr nocapture noundef nonnull readonly align 8 dereferenceable(72) %0, ptr nocapture noundef nonnull readonly align 8 dereferenceable(70) %1, ptr noundef nonnull align 8 dereferenceable(12) %2) local_unnamed_addr #0 align 2 {
  %4 = alloca %"class.std::optional.382", align 8
  %5 = getelementptr inbounds nuw i8, ptr %1, i64 32
  %6 = load ptr, ptr %5, align 8
  %7 = getelementptr inbounds i8, ptr %6, i64 36
  %8 = load i32, ptr %7, align 4
  %9 = getelementptr inbounds i8, ptr %6, i64 68
  %10 = load i32, ptr %9, align 4
  %11 = getelementptr inbounds nuw i8, ptr %1, i64 68
  %12 = load i16, ptr %11, align 4
  %13 = zext i16 %12 to i32
  %14 = getelementptr inbounds nuw i8, ptr %0, i64 8
  %15 = load ptr, ptr %14, align 8
  call void @_ZN4llvm17ConstantFoldBinOpEjNS_8RegisterES0_RKNS_19MachineRegisterInfoE(ptr dead_on_unwind nonnull writable sret(%"class.std::optional.382") align 8 %4, i32 noundef %13, i32 %8, i32 %10, ptr noundef nonnull align 8 dereferenceable(512) %15) #27
  %16 = getelementptr inbounds nuw i8, ptr %4, i64 16
  %17 = load i8, ptr %16, align 8
  %18 = trunc i8 %17 to i1
  br i1 %18, label %19, label %_ZN4llvm5APIntaSERKS0_.exit

19:                                               ; preds = %3
  %20 = getelementptr inbounds nuw i8, ptr %2, i64 8
  %21 = load i32, ptr %20, align 8
  %22 = icmp ult i32 %21, 65
  br i1 %22, label %23, label %29

23:                                               ; preds = %19
  %24 = getelementptr inbounds nuw i8, ptr %4, i64 8
  %25 = load i32, ptr %24, align 8
  %26 = icmp ult i32 %25, 65
  br i1 %26, label %27, label %29

27:                                               ; preds = %23
  %28 = load i64, ptr %4, align 8
  store i64 %28, ptr %2, align 8
  store i32 %25, ptr %20, align 8
  br label %_ZN4llvm5APIntaSERKS0_.exit

29:                                               ; preds = %23, %19
  call void @_ZN4llvm5APInt14assignSlowCaseERKS0_(ptr noundef nonnull align 8 dereferenceable(12) %2, ptr noundef nonnull align 8 dereferenceable(12) %4) #27
  %.pre = load i8, ptr %16, align 8
  br label %_ZN4llvm5APIntaSERKS0_.exit

_ZN4llvm5APIntaSERKS0_.exit:                      ; preds = %29, %27, %3
  %30 = phi i8 [ %.pre, %29 ], [ %17, %27 ], [ %17, %3 ]
  %31 = trunc i8 %30 to i1
  br i1 %31, label %32, label %_ZNSt8optionalIN4llvm5APIntEED2Ev.exit

32:                                               ; preds = %_ZN4llvm5APIntaSERKS0_.exit
  store i8 0, ptr %16, align 8
  %33 = getelementptr inbounds nuw i8, ptr %4, i64 8
  %34 = load i32, ptr %33, align 8
  %35 = icmp ugt i32 %34, 64
  br i1 %35, label %36, label %_ZNSt8optionalIN4llvm5APIntEED2Ev.exit

36:                                               ; preds = %32
  %37 = load ptr, ptr %4, align 8
  %38 = icmp eq ptr %37, null
  br i1 %38, label %_ZNSt8optionalIN4llvm5APIntEED2Ev.exit, label %39

39:                                               ; preds = %36
  call void @_ZdaPv(ptr noundef nonnull %37) #31
  br label %_ZNSt8optionalIN4llvm5APIntEED2Ev.exit

_ZNSt8optionalIN4llvm5APIntEED2Ev.exit:           ; preds = %_ZN4llvm5APIntaSERKS0_.exit, %32, %36, %39
  ret i1 %18
}